target datalayout = "e-m:e-p270:32:32-p271:32:32-p272:64:64-i64:64-i128:128-f80:128-n8:16:32:64-S128"
target triple = "x86_64-pc-linux-gnu"

%struct.ossl_record_layer_st = type { ptr, ptr, i32, i32, i32, i32, i32, ptr, i16, ptr, ptr, ptr, i64, i32, [33 x %struct.tls_buffer_st], i64, i64, %struct.tls_buffer_st, [32 x %struct.tls_rl_record_st], i64, i64, i64, i32, ptr, i64, [8 x i8], i32, i32, i64, i32, ptr, ptr, i64, ptr, ptr, i32, i32, i32, i64, i64, i64, [64 x i8], i32, i32, i32, ptr, ptr, i32, i32, i64, ptr, ptr, %struct.dtls_bitmap_st, %struct.dtls_bitmap_st, i32, ptr, ptr, ptr, ptr, ptr, i64, ptr }
%struct.tls_buffer_st = type { ptr, i64, i64, i64, i64, i32, i32 }
%struct.tls_rl_record_st = type { i32, i32, i64, i64, i64, ptr, ptr, ptr, i16, [8 x i8] }
%struct.dtls_bitmap_st = type { i64, [8 x i8] }
%struct.ossl_record_template_st = type { i8, i32, ptr, i64 }

@.str = private unnamed_addr constant [42 x i8] c"../openssl/ssl/record/methods/dtls_meth.c\00", align 1
@__func__.dtls_prepare_record_header = private unnamed_addr constant [27 x i8] c"dtls_prepare_record_header\00", align 1

; Function Attrs: nounwind uwtable
define i32 @dtls_prepare_record_header(ptr noundef %0, ptr noundef %1, ptr noundef %2, i8 noundef zeroext %3, ptr noundef %4) #0 {
  %6 = alloca i32, align 4
  %7 = alloca ptr, align 8
  %8 = alloca ptr, align 8
  %9 = alloca ptr, align 8
  %10 = alloca i8, align 1
  %11 = alloca ptr, align 8
  %12 = alloca i64, align 8
  %13 = alloca i32, align 4
  store ptr %0, ptr %7, align 8, !tbaa !3
  store ptr %1, ptr %8, align 8, !tbaa !88
  store ptr %2, ptr %9, align 8, !tbaa !90
  store i8 %3, ptr %10, align 1, !tbaa !40
  store ptr %4, ptr %11, align 8, !tbaa !92
  call void @llvm.lifetime.start.p0(i64 8, ptr %12) #6
  %14 = load ptr, ptr %11, align 8, !tbaa !92
  store ptr null, ptr %14, align 8, !tbaa !8
  %15 = load ptr, ptr %9, align 8, !tbaa !90
  %16 = getelementptr inbounds nuw %struct.ossl_record_template_st, ptr %15, i32 0, i32 3
  %17 = load i64, ptr %16, align 8, !tbaa !94
  store i64 %17, ptr %12, align 8, !tbaa !51
  %18 = load ptr, ptr %7, align 8, !tbaa !3
  %19 = getelementptr inbounds nuw %struct.ossl_record_layer_st, ptr %18, i32 0, i32 34
  %20 = load ptr, ptr %19, align 8, !tbaa !85
  %21 = icmp ne ptr %20, null
  br i1 %21, label %22, label %25

22:                                               ; preds = %5
  %23 = load i64, ptr %12, align 8, !tbaa !51
  %24 = add i64 %23, 1024
  store i64 %24, ptr %12, align 8, !tbaa !51
  br label %25

25:                                               ; preds = %22, %5
  %26 = load ptr, ptr %8, align 8, !tbaa !88
  %27 = load i8, ptr %10, align 1, !tbaa !40
  %28 = zext i8 %27 to i64
  %29 = call i32 @WPACKET_put_bytes__(ptr noundef %26, i64 noundef %28, i64 noundef 1)
  %30 = icmp ne i32 %29, 0
  br i1 %30, label %31, label %79

31:                                               ; preds = %25
  %32 = load ptr, ptr %8, align 8, !tbaa !88
  %33 = load ptr, ptr %9, align 8, !tbaa !90
  %34 = getelementptr inbounds nuw %struct.ossl_record_template_st, ptr %33, i32 0, i32 1
  %35 = load i32, ptr %34, align 4, !tbaa !96
  %36 = zext i32 %35 to i64
  %37 = call i32 @WPACKET_put_bytes__(ptr noundef %32, i64 noundef %36, i64 noundef 2)
  %38 = icmp ne i32 %37, 0
  br i1 %38, label %39, label %79

39:                                               ; preds = %31
  %40 = load ptr, ptr %8, align 8, !tbaa !88
  %41 = load ptr, ptr %7, align 8, !tbaa !3
  %42 = getelementptr inbounds nuw %struct.ossl_record_layer_st, ptr %41, i32 0, i32 8
  %43 = load i16, ptr %42, align 8, !tbaa !65
  %44 = zext i16 %43 to i64
  %45 = call i32 @WPACKET_put_bytes__(ptr noundef %40, i64 noundef %44, i64 noundef 2)
  %46 = icmp ne i32 %45, 0
  br i1 %46, label %47, label %79

47:                                               ; preds = %39
  %48 = load ptr, ptr %8, align 8, !tbaa !88
  %49 = load ptr, ptr %7, align 8, !tbaa !3
  %50 = getelementptr inbounds nuw %struct.ossl_record_layer_st, ptr %49, i32 0, i32 25
  %51 = getelementptr inbounds [8 x i8], ptr %50, i64 0, i64 2
  %52 = call i32 @WPACKET_memcpy(ptr noundef %48, ptr noundef %51, i64 noundef 6)
  %53 = icmp ne i32 %52, 0
  br i1 %53, label %54, label %79

54:                                               ; preds = %47
  %55 = load ptr, ptr %8, align 8, !tbaa !88
  %56 = call i32 @WPACKET_start_sub_packet_len__(ptr noundef %55, i64 noundef 2)
  %57 = icmp ne i32 %56, 0
  br i1 %57, label %58, label %79

58:                                               ; preds = %54
  %59 = load ptr, ptr %7, align 8, !tbaa !3
  %60 = getelementptr inbounds nuw %struct.ossl_record_layer_st, ptr %59, i32 0, i32 32
  %61 = load i64, ptr %60, align 8, !tbaa !97
  %62 = icmp ugt i64 %61, 0
  br i1 %62, label %63, label %70

63:                                               ; preds = %58
  %64 = load ptr, ptr %8, align 8, !tbaa !88
  %65 = load ptr, ptr %7, align 8, !tbaa !3
  %66 = getelementptr inbounds nuw %struct.ossl_record_layer_st, ptr %65, i32 0, i32 32
  %67 = load i64, ptr %66, align 8, !tbaa !97
  %68 = call i32 @WPACKET_allocate_bytes(ptr noundef %64, i64 noundef %67, ptr noundef null)
  %69 = icmp ne i32 %68, 0
  br i1 %69, label %70, label %79

70:                                               ; preds = %63, %58
  %71 = load i64, ptr %12, align 8, !tbaa !51
  %72 = icmp ugt i64 %71, 0
  br i1 %72, label %73, label %81

73:                                               ; preds = %70
  %74 = load ptr, ptr %8, align 8, !tbaa !88
  %75 = load i64, ptr %12, align 8, !tbaa !51
  %76 = load ptr, ptr %11, align 8, !tbaa !92
  %77 = call i32 @WPACKET_reserve_bytes(ptr noundef %74, i64 noundef %75, ptr noundef %76)
  %78 = icmp ne i32 %77, 0
  br i1 %78, label %81, label %79

79:                                               ; preds = %73, %63, %54, %47, %39, %31, %25
  call void @ERR_new()
  call void @ERR_set_debug(ptr noundef @.str, i32 noundef 716, ptr noundef @__func__.dtls_prepare_record_header)
  %80 = load ptr, ptr %7, align 8, !tbaa !3
  call void (ptr, i32, i32, ptr, ...) @ossl_rlayer_fatal(ptr noundef %80, i32 noundef 80, i32 noundef 786691, ptr noundef null)
  store i32 0, ptr %6, align 4
  store i32 1, ptr %13, align 4
  br label %82

81:                                               ; preds = %73, %70
  store i32 1, ptr %6, align 4
  store i32 1, ptr %13, align 4
  br label %82

82:                                               ; preds = %81, %79
  call void @llvm.lifetime.end.p0(i64 8, ptr %12) #6
  %83 = load i32, ptr %6, align 4
  ret i32 %83
}