; Function Attrs: nounwind uwtable
define range(i32 0, 2) i32 @dtls_prepare_record_header(ptr noundef %0, ptr noundef %1, ptr noundef readonly captures(none) %2, i8 noundef zeroext %3, ptr noundef initializes((0, 8)) %4) local_unnamed_addr #0 {
  store ptr null, ptr %4, align 8, !tbaa !70
  %6 = getelementptr inbounds nuw i8, ptr %2, i64 16
  %7 = load i64, ptr %6, align 8, !tbaa !71
  %8 = getelementptr inbounds nuw i8, ptr %0, i64 4160
  %9 = load ptr, ptr %8, align 8, !tbaa !64
  %.not = icmp eq ptr %9, null
  %10 = add i64 %7, 1024
  %spec.select = select i1 %.not, i64 %7, i64 %10
  %11 = zext i8 %3 to i64
  %12 = tail call i32 @WPACKET_put_bytes__(ptr noundef %1, i64 noundef %11, i64 noundef 1) #7
  %.not23 = icmp eq i32 %12, 0
  br i1 %.not23, label %36, label %13

13:                                               ; preds = %5
  %14 = getelementptr inbounds nuw i8, ptr %2, i64 4
  %15 = load i32, ptr %14, align 4, !tbaa !73
  %16 = zext i32 %15 to i64
  %17 = tail call i32 @WPACKET_put_bytes__(ptr noundef %1, i64 noundef %16, i64 noundef 2) #7
  %.not24 = icmp eq i32 %17, 0
  br i1 %.not24, label %36, label %18

18:                                               ; preds = %13
  %19 = getelementptr inbounds nuw i8, ptr %0, i64 48
  %20 = load i16, ptr %19, align 8, !tbaa !50
  %21 = zext i16 %20 to i64
  %22 = tail call i32 @WPACKET_put_bytes__(ptr noundef %1, i64 noundef %21, i64 noundef 2) #7
  %.not25 = icmp eq i32 %22, 0
  br i1 %.not25, label %36, label %23

23:                                               ; preds = %18
  %24 = getelementptr inbounds nuw i8, ptr %0, i64 4098
  %25 = tail call i32 @WPACKET_memcpy(ptr noundef %1, ptr noundef nonnull %24, i64 noundef 6) #7
  %.not26 = icmp eq i32 %25, 0
  br i1 %.not26, label %36, label %26

26:                                               ; preds = %23
  %27 = tail call i32 @WPACKET_start_sub_packet_len__(ptr noundef %1, i64 noundef 2) #7
  %.not27 = icmp eq i32 %27, 0
  br i1 %.not27, label %36, label %28

28:                                               ; preds = %26
  %29 = getelementptr inbounds nuw i8, ptr %0, i64 4144
  %30 = load i64, ptr %29, align 8, !tbaa !74
  %.not28 = icmp eq i64 %30, 0
  br i1 %.not28, label %33, label %31

31:                                               ; preds = %28
  %32 = tail call i32 @WPACKET_allocate_bytes(ptr noundef %1, i64 noundef %30, ptr noundef null) #7
  %.not29 = icmp eq i32 %32, 0
  br i1 %.not29, label %36, label %33

33:                                               ; preds = %31, %28
  %.not30 = icmp eq i64 %spec.select, 0
  br i1 %.not30, label %37, label %34

34:                                               ; preds = %33
  %35 = tail call i32 @WPACKET_reserve_bytes(ptr noundef %1, i64 noundef %spec.select, ptr noundef nonnull %4) #7
  %.not31 = icmp eq i32 %35, 0
  br i1 %.not31, label %36, label %37

36:                                               ; preds = %34, %31, %26, %23, %18, %13, %5
  tail call void @ERR_new() #7
  tail call void @ERR_set_debug(ptr noundef nonnull @.str, i32 noundef 716, ptr noundef nonnull @__func__.dtls_prepare_record_header) #7
  tail call void (ptr, i32, i32, ptr, ...) @ossl_rlayer_fatal(ptr noundef nonnull %0, i32 noundef 80, i32 noundef 786691, ptr noundef null) #7
  br label %37

37:                                               ; preds = %33, %34, %36
  %.021 = phi i32 [ 0, %36 ], [ 1, %34 ], [ 1, %33 ]
  ret i32 %.021
}